target datalayout = "e-m:e-p270:32:32-p271:32:32-p272:64:64-i64:64-i128:128-f80:128-n8:16:32:64-S128"
target triple = "x86_64-pc-linux-gnu"

%struct.evp_test_st = type { %struct.stanza_st, ptr, i32, ptr, ptr, ptr, ptr, ptr, ptr, i32 }
%struct.stanza_st = type { ptr, ptr, i32, i32, i32, i32, i32, i32, [150 x %struct.pair_st], ptr, [32768 x i8] }
%struct.pair_st = type { ptr, ptr }
%struct.DIGESTSIGN_DATA = type { i32, i32, ptr, ptr, ptr, ptr, ptr, i64, ptr, i64, i32, ptr, ptr, ptr }

@.str.270 = private unnamed_addr constant [13 x i8] c"VERIFY_ERROR\00", align 1

; Function Attrs: nounwind uwtable
define internal i32 @oneshot_digestverify_test_run(ptr noundef %0) #0 {
  %2 = alloca i32, align 4
  %3 = alloca ptr, align 8
  %4 = alloca ptr, align 8
  %5 = alloca i32, align 4
  store ptr %0, ptr %3, align 8, !tbaa !15
  call void @llvm.lifetime.start.p0(i64 8, ptr %4) #10
  %6 = load ptr, ptr %3, align 8, !tbaa !15
  %7 = getelementptr inbounds nuw %struct.evp_test_st, ptr %6, i32 0, i32 8
  %8 = load ptr, ptr %7, align 8, !tbaa !66
  store ptr %8, ptr %4, align 8, !tbaa !97
  %9 = load ptr, ptr %3, align 8, !tbaa !15
  %10 = load ptr, ptr %4, align 8, !tbaa !97
  %11 = call i32 @signverify_init(ptr noundef %9, ptr noundef %10)
  %12 = icmp ne i32 %11, 0
  br i1 %12, label %14, label %13

13:                                               ; preds = %1
  store i32 1, ptr %2, align 4
  store i32 1, ptr %5, align 4
  br label %36

14:                                               ; preds = %1
  %15 = load ptr, ptr %4, align 8, !tbaa !97
  %16 = getelementptr inbounds nuw %struct.DIGESTSIGN_DATA, ptr %15, i32 0, i32 3
  %17 = load ptr, ptr %16, align 8, !tbaa !216
  %18 = load ptr, ptr %4, align 8, !tbaa !97
  %19 = getelementptr inbounds nuw %struct.DIGESTSIGN_DATA, ptr %18, i32 0, i32 8
  %20 = load ptr, ptr %19, align 8, !tbaa !219
  %21 = load ptr, ptr %4, align 8, !tbaa !97
  %22 = getelementptr inbounds nuw %struct.DIGESTSIGN_DATA, ptr %21, i32 0, i32 9
  %23 = load i64, ptr %22, align 8, !tbaa !226
  %24 = load ptr, ptr %4, align 8, !tbaa !97
  %25 = getelementptr inbounds nuw %struct.DIGESTSIGN_DATA, ptr %24, i32 0, i32 6
  %26 = load ptr, ptr %25, align 8, !tbaa !218
  %27 = load ptr, ptr %4, align 8, !tbaa !97
  %28 = getelementptr inbounds nuw %struct.DIGESTSIGN_DATA, ptr %27, i32 0, i32 7
  %29 = load i64, ptr %28, align 8, !tbaa !327
  %30 = call i32 @EVP_DigestVerify(ptr noundef %17, ptr noundef %20, i64 noundef %23, ptr noundef %26, i64 noundef %29)
  %31 = icmp sle i32 %30, 0
  br i1 %31, label %32, label %35

32:                                               ; preds = %14
  %33 = load ptr, ptr %3, align 8, !tbaa !15
  %34 = getelementptr inbounds nuw %struct.evp_test_st, ptr %33, i32 0, i32 4
  store ptr @.str.270, ptr %34, align 8, !tbaa !63
  br label %35

35:                                               ; preds = %32, %14
  store i32 1, ptr %2, align 4
  store i32 1, ptr %5, align 4
  br label %36

36:                                               ; preds = %35, %13
  call void @llvm.lifetime.end.p0(i64 8, ptr %4) #10
  %37 = load i32, ptr %2, align 4
  ret i32 %37
}