; Function Attrs: nounwind uwtable
define internal noundef i32 @oneshot_digestverify_test_run(ptr noundef captures(none) %0) #1 {
  %2 = getelementptr inbounds nuw i8, ptr %0, i64 35272
  %3 = load ptr, ptr %2, align 8, !tbaa !20
  %4 = tail call fastcc i32 @signverify_init(ptr noundef %0, ptr noundef %3)
  %.not = icmp eq i32 %4, 0
  br i1 %.not, label %20, label %5

5:                                                ; preds = %1
  %6 = getelementptr inbounds nuw i8, ptr %3, i64 16
  %7 = load ptr, ptr %6, align 8, !tbaa !176
  %8 = getelementptr inbounds nuw i8, ptr %3, i64 56
  %9 = load ptr, ptr %8, align 8, !tbaa !179
  %10 = getelementptr inbounds nuw i8, ptr %3, i64 64
  %11 = load i64, ptr %10, align 8, !tbaa !186
  %12 = getelementptr inbounds nuw i8, ptr %3, i64 40
  %13 = load ptr, ptr %12, align 8, !tbaa !178
  %14 = getelementptr inbounds nuw i8, ptr %3, i64 48
  %15 = load i64, ptr %14, align 8, !tbaa !267
  %16 = tail call i32 @EVP_DigestVerify(ptr noundef %7, ptr noundef %9, i64 noundef %11, ptr noundef %13, i64 noundef %15) #10
  %17 = icmp slt i32 %16, 1
  br i1 %17, label %18, label %20

18:                                               ; preds = %5
  %19 = getelementptr inbounds nuw i8, ptr %0, i64 35240
  store ptr @.str.270, ptr %19, align 8, !tbaa !64
  br label %20

20:                                               ; preds = %5, %18, %1
  ret i32 1
}